target datalayout = "e-m:e-p270:32:32-p271:32:32-p272:64:64-i64:64-i128:128-f80:128-n8:16:32:64-S128"
target triple = "x86_64-pc-linux-gnu"

%"struct.net::QuicMultipathSentPacketManager::PathSentPacketManagerInfo" = type <{ ptr, i32, [4 x i8] }>
%"class.net::QuicMultipathSentPacketManager" = type { %"class.net::QuicSentPacketManagerInterface", %"class.std::vector", ptr }
%"class.net::QuicSentPacketManagerInterface" = type { ptr }
%"class.std::vector" = type { %"struct.std::_Vector_base" }
%"struct.std::_Vector_base" = type { %"struct.std::_Vector_base<net::QuicMultipathSentPacketManager::PathSentPacketManagerInfo, std::allocator<net::QuicMultipathSentPacketManager::PathSentPacketManagerInfo>>::_Vector_impl" }
%"struct.std::_Vector_base<net::QuicMultipathSentPacketManager::PathSentPacketManagerInfo, std::allocator<net::QuicMultipathSentPacketManager::PathSentPacketManagerInfo>>::_Vector_impl" = type { %"struct.std::_Vector_base<net::QuicMultipathSentPacketManager::PathSentPacketManagerInfo, std::allocator<net::QuicMultipathSentPacketManager::PathSentPacketManagerInfo>>::_Vector_impl_data" }
%"struct.std::_Vector_base<net::QuicMultipathSentPacketManager::PathSentPacketManagerInfo, std::allocator<net::QuicMultipathSentPacketManager::PathSentPacketManagerInfo>>::_Vector_impl_data" = type { ptr, ptr, ptr }
%"class.net::QuicTime" = type { i64 }
%"class.net::QuicTime::Delta" = type { %"class.base::TimeDelta", i64 }
%"class.base::TimeDelta" = type { i64 }

; Function Attrs: mustprogress nounwind uwtable
define linkonce_odr void @_ZN4base9TimeDeltaC2Ev(ptr noundef nonnull align 8 dereferenceable(8) %0) unnamed_addr #2 comdat align 2 {
  %2 = alloca ptr, align 8
  store ptr %0, ptr %2, align 8, !tbaa !171
  %3 = load ptr, ptr %2, align 8
  %4 = getelementptr inbounds nuw %"class.base::TimeDelta", ptr %3, i32 0, i32 0
  store i64 0, ptr %4, align 8, !tbaa !173
  ret void
}

; Function Attrs: mustprogress nounwind uwtable
define linkonce_odr noundef nonnull align 8 dereferenceable(8) ptr @_ZN4base9TimeDeltaaSES0_(ptr noundef nonnull align 8 dereferenceable(8) %0, i64 %1) #2 comdat align 2 {
  %3 = alloca %"class.base::TimeDelta", align 8
  %4 = alloca ptr, align 8
  %5 = getelementptr inbounds nuw %"class.base::TimeDelta", ptr %3, i32 0, i32 0
  store i64 %1, ptr %5, align 8
  store ptr %0, ptr %4, align 8, !tbaa !171
  %6 = load ptr, ptr %4, align 8
  %7 = getelementptr inbounds nuw %"class.base::TimeDelta", ptr %3, i32 0, i32 0
  %8 = load i64, ptr %7, align 8, !tbaa !173
  %9 = getelementptr inbounds nuw %"class.base::TimeDelta", ptr %6, i32 0, i32 0
  store i64 %8, ptr %9, align 8, !tbaa !173
  ret ptr %6
}

; Function Attrs: inlinehint mustprogress uwtable
define linkonce_odr void @_ZN3net8QuicTime5DeltaC2El(ptr noundef nonnull align 8 dereferenceable(16) %0, i64 noundef %1) unnamed_addr #9 comdat align 2 {
  %3 = alloca ptr, align 8
  %4 = alloca i64, align 8
  store ptr %0, ptr %3, align 8, !tbaa !128
  store i64 %1, ptr %4, align 8, !tbaa !44
  %5 = load ptr, ptr %3, align 8
  %6 = getelementptr inbounds nuw %"class.net::QuicTime::Delta", ptr %5, i32 0, i32 0
  call void @_ZN4base9TimeDeltaC2Ev(ptr noundef nonnull align 8 dereferenceable(8) %6)
  %7 = getelementptr inbounds nuw %"class.net::QuicTime::Delta", ptr %5, i32 0, i32 1
  %8 = load i64, ptr %4, align 8, !tbaa !44
  store i64 %8, ptr %7, align 8, !tbaa !130
  ret void
}

; Function Attrs: inlinehint mustprogress uwtable
define linkonce_odr noundef nonnull align 8 dereferenceable(16) ptr @_ZN3net8QuicTime5DeltaaSERKS1_(ptr noundef nonnull align 8 dereferenceable(16) %0, ptr noundef nonnull align 8 dereferenceable(16) %1) #9 comdat align 2 {
  %3 = alloca ptr, align 8
  %4 = alloca ptr, align 8
  %5 = alloca %"class.base::TimeDelta", align 8
  store ptr %0, ptr %3, align 8, !tbaa !128
  store ptr %1, ptr %4, align 8, !tbaa !128
  %6 = load ptr, ptr %3, align 8
  %7 = getelementptr inbounds nuw %"class.net::QuicTime::Delta", ptr %6, i32 0, i32 0
  %8 = load ptr, ptr %4, align 8, !tbaa !128
  %9 = getelementptr inbounds nuw %"class.net::QuicTime::Delta", ptr %8, i32 0, i32 0
  call void @llvm.memcpy.p0.p0.i64(ptr align 8 %5, ptr align 8 %9, i64 8, i1 false), !tbaa.struct !46
  %10 = getelementptr inbounds nuw %"class.base::TimeDelta", ptr %5, i32 0, i32 0
  %11 = load i64, ptr %10, align 8
  %12 = call noundef nonnull align 8 dereferenceable(8) ptr @_ZN4base9TimeDeltaaSES0_(ptr noundef nonnull align 8 dereferenceable(8) %7, i64 %11)
  %13 = load ptr, ptr %4, align 8, !tbaa !128
  %14 = getelementptr inbounds nuw %"class.net::QuicTime::Delta", ptr %13, i32 0, i32 1
  %15 = load i64, ptr %14, align 8, !tbaa !130
  %16 = getelementptr inbounds nuw %"class.net::QuicTime::Delta", ptr %6, i32 0, i32 1
  store i64 %15, ptr %16, align 8, !tbaa !130
  ret ptr %6
}

; Function Attrs: inlinehint mustprogress nounwind uwtable
define linkonce_odr noundef zeroext i1 @_ZN3netltENS_8QuicTime5DeltaES1_(i64 %0, i64 %1, i64 %2, i64 %3) #1 comdat {
  %5 = alloca %"class.net::QuicTime::Delta", align 8
  %6 = alloca %"class.net::QuicTime::Delta", align 8
  %7 = getelementptr inbounds nuw { i64, i64 }, ptr %5, i32 0, i32 0
  store i64 %0, ptr %7, align 8
  %8 = getelementptr inbounds nuw { i64, i64 }, ptr %5, i32 0, i32 1
  store i64 %1, ptr %8, align 8
  %9 = getelementptr inbounds nuw { i64, i64 }, ptr %6, i32 0, i32 0
  store i64 %2, ptr %9, align 8
  %10 = getelementptr inbounds nuw { i64, i64 }, ptr %6, i32 0, i32 1
  store i64 %3, ptr %10, align 8
  %11 = getelementptr inbounds nuw %"class.net::QuicTime::Delta", ptr %5, i32 0, i32 1
  %12 = load i64, ptr %11, align 8, !tbaa !130
  %13 = getelementptr inbounds nuw %"class.net::QuicTime::Delta", ptr %6, i32 0, i32 1
  %14 = load i64, ptr %13, align 8, !tbaa !130
  %15 = icmp slt i64 %12, %14
  ret i1 %15
}

; Function Attrs: inlinehint mustprogress nounwind uwtable
define linkonce_odr noundef zeroext i1 @_ZNK3net8QuicTime5Delta10IsInfiniteEv(ptr noundef nonnull align 8 dereferenceable(16) %0) #1 comdat align 2 {
  %2 = alloca ptr, align 8
  store ptr %0, ptr %2, align 8, !tbaa !128
  %3 = load ptr, ptr %2, align 8
  %4 = getelementptr inbounds nuw %"class.net::QuicTime::Delta", ptr %3, i32 0, i32 1
  %5 = load i64, ptr %4, align 8, !tbaa !130
  %6 = icmp eq i64 %5, 9223372036854775807
  ret i1 %6
}

; Function Attrs: mustprogress nounwind uwtable
define linkonce_odr noundef nonnull align 8 dereferenceable(12) ptr @_ZNSt6vectorIN3net30QuicMultipathSentPacketManager25PathSentPacketManagerInfoESaIS2_EEixEm(ptr noundef nonnull align 8 dereferenceable(24) %0, i64 noundef %1) #2 comdat align 2 {
  %3 = alloca ptr, align 8
  %4 = alloca i64, align 8
  store ptr %0, ptr %3, align 8, !tbaa !22
  store i64 %1, ptr %4, align 8, !tbaa !44
  %5 = load ptr, ptr %3, align 8
  %6 = getelementptr inbounds nuw %"struct.std::_Vector_base", ptr %5, i32 0, i32 0
  %7 = getelementptr inbounds nuw %"struct.std::_Vector_base<net::QuicMultipathSentPacketManager::PathSentPacketManagerInfo, std::allocator<net::QuicMultipathSentPacketManager::PathSentPacketManagerInfo>>::_Vector_impl_data", ptr %6, i32 0, i32 0
  %8 = load ptr, ptr %7, align 8, !tbaa !25
  %9 = load i64, ptr %4, align 8, !tbaa !44
  %10 = getelementptr inbounds nuw %"struct.net::QuicMultipathSentPacketManager::PathSentPacketManagerInfo", ptr %8, i64 %9
  ret ptr %10
}

; Function Attrs: mustprogress nounwind uwtable
define linkonce_odr noundef i64 @_ZNKSt6vectorIN3net30QuicMultipathSentPacketManager25PathSentPacketManagerInfoESaIS2_EE4sizeEv(ptr noundef nonnull align 8 dereferenceable(24) %0) #2 comdat align 2 {
  %2 = alloca ptr, align 8
  store ptr %0, ptr %2, align 8, !tbaa !22
  %3 = load ptr, ptr %2, align 8
  %4 = getelementptr inbounds nuw %"struct.std::_Vector_base", ptr %3, i32 0, i32 0
  %5 = getelementptr inbounds nuw %"struct.std::_Vector_base<net::QuicMultipathSentPacketManager::PathSentPacketManagerInfo, std::allocator<net::QuicMultipathSentPacketManager::PathSentPacketManagerInfo>>::_Vector_impl_data", ptr %4, i32 0, i32 1
  %6 = load ptr, ptr %5, align 8, !tbaa !26
  %7 = getelementptr inbounds nuw %"struct.std::_Vector_base", ptr %3, i32 0, i32 0
  %8 = getelementptr inbounds nuw %"struct.std::_Vector_base<net::QuicMultipathSentPacketManager::PathSentPacketManagerInfo, std::allocator<net::QuicMultipathSentPacketManager::PathSentPacketManagerInfo>>::_Vector_impl_data", ptr %7, i32 0, i32 0
  %9 = load ptr, ptr %8, align 8, !tbaa !25
  %10 = ptrtoint ptr %6 to i64
  %11 = ptrtoint ptr %9 to i64
  %12 = sub i64 %10, %11
  %13 = sdiv exact i64 %12, 16
  ret i64 %13
}

; Function Attrs: inlinehint mustprogress uwtable
define linkonce_odr { i64, i64 } @_ZN3net8QuicTime5Delta8InfiniteEv() #9 comdat align 2 {
  %1 = alloca %"class.net::QuicTime::Delta", align 8
  call void @_ZN3net8QuicTime5DeltaC2El(ptr noundef nonnull align 8 dereferenceable(16) %1, i64 noundef 9223372036854775807)
  %2 = load { i64, i64 }, ptr %1, align 8
  ret { i64, i64 } %2
}

; Function Attrs: mustprogress uwtable
define { i64, i64 } @_ZN3net30QuicMultipathSentPacketManager13TimeUntilSendENS_8QuicTimeEPh(ptr noundef nonnull align 8 dereferenceable(40) %0, i64 %1, ptr noundef %2) unnamed_addr #0 align 2 {
  %4 = alloca %"class.net::QuicTime::Delta", align 8
  %5 = alloca %"class.net::QuicTime", align 8
  %6 = alloca ptr, align 8
  %7 = alloca ptr, align 8
  %8 = alloca i64, align 8
  %9 = alloca %"class.net::QuicTime::Delta", align 8
  %10 = alloca %"class.net::QuicTime", align 8
  %11 = alloca %"class.net::QuicTime::Delta", align 8
  %12 = alloca %"class.net::QuicTime::Delta", align 8
  %13 = getelementptr inbounds nuw %"class.net::QuicTime", ptr %5, i32 0, i32 0
  store i64 %1, ptr %13, align 8
  store ptr %0, ptr %6, align 8, !tbaa !3
  store ptr %2, ptr %7, align 8, !tbaa !125
  %14 = load ptr, ptr %6, align 8
  %15 = call { i64, i64 } @_ZN3net8QuicTime5Delta8InfiniteEv()
  %16 = getelementptr inbounds nuw { i64, i64 }, ptr %4, i32 0, i32 0
  %17 = extractvalue { i64, i64 } %15, 0
  store i64 %17, ptr %16, align 8
  %18 = getelementptr inbounds nuw { i64, i64 }, ptr %4, i32 0, i32 1
  %19 = extractvalue { i64, i64 } %15, 1
  store i64 %19, ptr %18, align 8
  %20 = load ptr, ptr %7, align 8, !tbaa !125
  store i8 -1, ptr %20, align 1, !tbaa !42
  call void @llvm.lifetime.start.p0(i64 8, ptr %8) #15
  store i64 0, ptr %8, align 8, !tbaa !44
  br label %21

21:                                               ; preds = %76, %3
  %22 = load i64, ptr %8, align 8, !tbaa !44
  %23 = getelementptr inbounds nuw %"class.net::QuicMultipathSentPacketManager", ptr %14, i32 0, i32 1
  %24 = call noundef i64 @_ZNKSt6vectorIN3net30QuicMultipathSentPacketManager25PathSentPacketManagerInfoESaIS2_EE4sizeEv(ptr noundef nonnull align 8 dereferenceable(24) %23) #15
  %25 = icmp ult i64 %22, %24
  br i1 %25, label %27, label %26

26:                                               ; preds = %21
  call void @llvm.lifetime.end.p0(i64 8, ptr %8) #15
  br label %79

27:                                               ; preds = %21
  %28 = getelementptr inbounds nuw %"class.net::QuicMultipathSentPacketManager", ptr %14, i32 0, i32 1
  %29 = load i64, ptr %8, align 8, !tbaa !44
  %30 = call noundef nonnull align 8 dereferenceable(12) ptr @_ZNSt6vectorIN3net30QuicMultipathSentPacketManager25PathSentPacketManagerInfoESaIS2_EEixEm(ptr noundef nonnull align 8 dereferenceable(24) %28, i64 noundef %29) #15
  %31 = getelementptr inbounds nuw %"struct.net::QuicMultipathSentPacketManager::PathSentPacketManagerInfo", ptr %30, i32 0, i32 0
  %32 = load ptr, ptr %31, align 8, !tbaa !27
  %33 = icmp eq ptr %32, null
  br i1 %33, label %41, label %34

34:                                               ; preds = %27
  %35 = getelementptr inbounds nuw %"class.net::QuicMultipathSentPacketManager", ptr %14, i32 0, i32 1
  %36 = load i64, ptr %8, align 8, !tbaa !44
  %37 = call noundef nonnull align 8 dereferenceable(12) ptr @_ZNSt6vectorIN3net30QuicMultipathSentPacketManager25PathSentPacketManagerInfoESaIS2_EEixEm(ptr noundef nonnull align 8 dereferenceable(24) %35, i64 noundef %36) #15
  %38 = getelementptr inbounds nuw %"struct.net::QuicMultipathSentPacketManager::PathSentPacketManagerInfo", ptr %37, i32 0, i32 1
  %39 = load i32, ptr %38, align 8, !tbaa !43
  %40 = icmp ne i32 %39, 0
  br i1 %40, label %41, label %42

41:                                               ; preds = %34, %27
  br label %76

42:                                               ; preds = %34
  call void @llvm.lifetime.start.p0(i64 16, ptr %9) #15
  %43 = getelementptr inbounds nuw %"class.net::QuicMultipathSentPacketManager", ptr %14, i32 0, i32 1
  %44 = load i64, ptr %8, align 8, !tbaa !44
  %45 = call noundef nonnull align 8 dereferenceable(12) ptr @_ZNSt6vectorIN3net30QuicMultipathSentPacketManager25PathSentPacketManagerInfoESaIS2_EEixEm(ptr noundef nonnull align 8 dereferenceable(24) %43, i64 noundef %44) #15
  %46 = getelementptr inbounds nuw %"struct.net::QuicMultipathSentPacketManager::PathSentPacketManagerInfo", ptr %45, i32 0, i32 0
  %47 = load ptr, ptr %46, align 8, !tbaa !27
  call void @llvm.memcpy.p0.p0.i64(ptr align 8 %10, ptr align 8 %5, i64 8, i1 false), !tbaa.struct !46
  %48 = load ptr, ptr %7, align 8, !tbaa !125
  %49 = getelementptr inbounds nuw %"class.net::QuicTime", ptr %10, i32 0, i32 0
  %50 = load i64, ptr %49, align 8
  %51 = load ptr, ptr %47, align 8, !tbaa !12
  %52 = getelementptr inbounds ptr, ptr %51, i64 17
  %53 = load ptr, ptr %52, align 8
  %54 = call { i64, i64 } %53(ptr noundef nonnull align 8 dereferenceable(8) %47, i64 %50, ptr noundef %48)
  %55 = getelementptr inbounds nuw { i64, i64 }, ptr %9, i32 0, i32 0
  %56 = extractvalue { i64, i64 } %54, 0
  store i64 %56, ptr %55, align 8
  %57 = getelementptr inbounds nuw { i64, i64 }, ptr %9, i32 0, i32 1
  %58 = extractvalue { i64, i64 } %54, 1
  store i64 %58, ptr %57, align 8
  %59 = call noundef zeroext i1 @_ZNK3net8QuicTime5Delta10IsInfiniteEv(ptr noundef nonnull align 8 dereferenceable(16) %9)
  br i1 %59, label %75, label %60

60:                                               ; preds = %42
  call void @llvm.memcpy.p0.p0.i64(ptr align 8 %11, ptr align 8 %9, i64 16, i1 false), !tbaa.struct !126
  call void @llvm.memcpy.p0.p0.i64(ptr align 8 %12, ptr align 8 %4, i64 16, i1 false), !tbaa.struct !126
  %61 = getelementptr inbounds nuw { i64, i64 }, ptr %11, i32 0, i32 0
  %62 = load i64, ptr %61, align 8
  %63 = getelementptr inbounds nuw { i64, i64 }, ptr %11, i32 0, i32 1
  %64 = load i64, ptr %63, align 8
  %65 = getelementptr inbounds nuw { i64, i64 }, ptr %12, i32 0, i32 0
  %66 = load i64, ptr %65, align 8
  %67 = getelementptr inbounds nuw { i64, i64 }, ptr %12, i32 0, i32 1
  %68 = load i64, ptr %67, align 8
  %69 = call noundef zeroext i1 @_ZN3netltENS_8QuicTime5DeltaES1_(i64 %62, i64 %64, i64 %66, i64 %68)
  br i1 %69, label %70, label %75

70:                                               ; preds = %60
  %71 = call noundef nonnull align 8 dereferenceable(16) ptr @_ZN3net8QuicTime5DeltaaSERKS1_(ptr noundef nonnull align 8 dereferenceable(16) %4, ptr noundef nonnull align 8 dereferenceable(16) %9)
  %72 = load i64, ptr %8, align 8, !tbaa !44
  %73 = trunc i64 %72 to i8
  %74 = load ptr, ptr %7, align 8, !tbaa !125
  store i8 %73, ptr %74, align 1, !tbaa !42
  br label %75

75:                                               ; preds = %70, %60, %42
  call void @llvm.lifetime.end.p0(i64 16, ptr %9) #15
  br label %76

76:                                               ; preds = %75, %41
  %77 = load i64, ptr %8, align 8, !tbaa !44
  %78 = add i64 %77, 1
  store i64 %78, ptr %8, align 8, !tbaa !44
  br label %21, !llvm.loop !127

79:                                               ; preds = %26
  %80 = load { i64, i64 }, ptr %4, align 8
  ret { i64, i64 } %80
}