; Function Attrs: mustprogress uwtable
define { i64, i64 } @_ZN3net30QuicMultipathSentPacketManager13TimeUntilSendENS_8QuicTimeEPh(ptr noundef nonnull readonly align 8 captures(none) dereferenceable(40) %0, i64 %1, ptr noundef initializes((0, 1)) %2) unnamed_addr #0 align 2 {
  store i8 -1, ptr %2, align 1, !tbaa !36
  %4 = getelementptr inbounds nuw i8, ptr %0, i64 8
  %5 = getelementptr inbounds nuw i8, ptr %0, i64 16
  %6 = load ptr, ptr %5, align 8, !tbaa !17
  %7 = load ptr, ptr %4, align 8, !tbaa !19
  %.not23 = icmp eq ptr %6, %7
  br i1 %.not23, label %._crit_edge, label %.lr.ph

._crit_edge:                                      ; preds = %26, %3
  %.sroa.016.0.lcssa = phi i64 [ 0, %3 ], [ %.sroa.016.1, %26 ]
  %.sroa.4.0.lcssa = phi i64 [ 9223372036854775807, %3 ], [ %.sroa.4.1, %26 ]
  %.fca.0.insert = insertvalue { i64, i64 } poison, i64 %.sroa.016.0.lcssa, 0
  %.fca.1.insert = insertvalue { i64, i64 } %.fca.0.insert, i64 %.sroa.4.0.lcssa, 1
  ret { i64, i64 } %.fca.1.insert

.lr.ph:                                           ; preds = %3, %26
  %8 = phi ptr [ %29, %26 ], [ %7, %3 ]
  %.021 = phi i64 [ %27, %26 ], [ 0, %3 ]
  %.sroa.4.020 = phi i64 [ %.sroa.4.1, %26 ], [ 9223372036854775807, %3 ]
  %.sroa.016.019 = phi i64 [ %.sroa.016.1, %26 ], [ 0, %3 ]
  %9 = getelementptr inbounds nuw %"struct.net::QuicMultipathSentPacketManager::PathSentPacketManagerInfo", ptr %8, i64 %.021
  %10 = load ptr, ptr %9, align 8, !tbaa !21
  %11 = icmp eq ptr %10, null
  br i1 %11, label %26, label %12

12:                                               ; preds = %.lr.ph
  %13 = getelementptr inbounds nuw i8, ptr %9, i64 8
  %14 = load i32, ptr %13, align 8, !tbaa !25
  %.not = icmp eq i32 %14, 0
  br i1 %.not, label %15, label %26

15:                                               ; preds = %12
  %16 = load ptr, ptr %10, align 8, !tbaa !3
  %17 = getelementptr inbounds nuw i8, ptr %16, i64 136
  %18 = load ptr, ptr %17, align 8
  %19 = tail call { i64, i64 } %18(ptr noundef nonnull align 8 dereferenceable(8) %10, i64 %1, ptr noundef nonnull %2)
  %20 = extractvalue { i64, i64 } %19, 1
  %21 = icmp ne i64 %20, 9223372036854775807
  %22 = icmp slt i64 %20, %.sroa.4.020
  %or.cond = select i1 %21, i1 %22, i1 false
  br i1 %or.cond, label %23, label %26

23:                                               ; preds = %15
  %24 = extractvalue { i64, i64 } %19, 0
  %25 = trunc i64 %.021 to i8
  store i8 %25, ptr %2, align 1, !tbaa !36
  br label %26

26:                                               ; preds = %15, %23, %.lr.ph, %12
  %.sroa.016.1 = phi i64 [ %.sroa.016.019, %.lr.ph ], [ %.sroa.016.019, %12 ], [ %.sroa.016.019, %15 ], [ %24, %23 ]
  %.sroa.4.1 = phi i64 [ %.sroa.4.020, %.lr.ph ], [ %.sroa.4.020, %12 ], [ %.sroa.4.020, %15 ], [ %20, %23 ]
  %27 = add nuw i64 %.021, 1
  %28 = load ptr, ptr %5, align 8, !tbaa !17
  %29 = load ptr, ptr %4, align 8, !tbaa !19
  %30 = ptrtoint ptr %28 to i64
  %31 = ptrtoint ptr %29 to i64
  %32 = sub i64 %30, %31
  %33 = ashr exact i64 %32, 4
  %34 = icmp ult i64 %27, %33
  br i1 %34, label %.lr.ph, label %._crit_edge, !llvm.loop !110
}